; Function Attrs: mustprogress nounwind uwtable
define hidden void @_ZN19G1FullGCPrepareTask26G1CalculatePointersClosure22prepare_for_compactionEP12G1HeapRegion(ptr nocapture noundef nonnull readonly align 8 dereferenceable(48) %0, ptr noundef %1) local_unnamed_addr #1 align 2 {
  %3 = alloca %"class.G1FullGCPrepareTask::G1PrepareCompactLiveClosure", align 8
  %4 = getelementptr inbounds i8, ptr %0, i64 24
  %5 = load ptr, ptr %4, align 8
  %6 = getelementptr inbounds i8, ptr %1, i64 48
  %7 = load i32, ptr %6, align 8
  %8 = zext i32 %7 to i64
  %9 = getelementptr inbounds i8, ptr %5, i64 776
  %10 = load ptr, ptr %9, align 8
  %11 = getelementptr inbounds i8, ptr %10, i64 %8
  %12 = load i8, ptr %11, align 1
  %13 = icmp eq i8 %12, 2
  br i1 %13, label %19, label %14

14:                                               ; preds = %2
  %15 = getelementptr inbounds i8, ptr %0, i64 40
  %16 = load ptr, ptr %15, align 8
  store ptr %16, ptr %3, align 8
  %17 = getelementptr inbounds i8, ptr %0, i64 32
  %18 = load ptr, ptr %17, align 8
  call void @_ZN12G1HeapRegion23apply_to_marked_objectsIN19G1FullGCPrepareTask27G1PrepareCompactLiveClosureEEEvP10G1CMBitMapPT_(ptr noundef nonnull align 8 dereferenceable(136) %1, ptr noundef %18, ptr noundef nonnull %3)
  br label %19

19:                                               ; preds = %14, %2
  ret void
}